; Function Attrs: nounwind uwtable
define hidden void @zflf_in_array_2(ptr noundef writeonly captures(none) %0, ptr noundef %1, ptr noundef %2) local_unnamed_addr #2 {
  %4 = getelementptr inbounds nuw i8, ptr %2, i64 8
  %5 = load i8, ptr %4, align 8, !tbaa !8
  %6 = icmp eq i8 %5, 7
  br i1 %6, label %7, label %zend_parse_arg_array.exit, !prof !10

zend_parse_arg_array.exit:                        ; preds = %3
  tail call void @zend_wrong_parameter_type_error(i32 noundef 2, i32 noundef 6, ptr noundef nonnull %2) #21
  br label %8

7:                                                ; preds = %3
  tail call fastcc void @_php_search_array(ptr noundef %0, ptr noundef %1, ptr noundef nonnull %2, i1 noundef zeroext false, i32 noundef 0)
  br label %8

8:                                                ; preds = %7, %zend_parse_arg_array.exit
  ret void
}